; Function Attrs: nounwind uwtable
define internal fastcc void @spl_array_rewind(ptr noundef %0) unnamed_addr #0 {
  %2 = getelementptr inbounds i8, ptr %0, i64 20
  %3 = load i32, ptr %2, align 4
  %4 = and i32 %3, 16777216
  %.not30.i.i = icmp eq i32 %4, 0
  br i1 %.not30.i.i, label %.lr.ph.i.i, label %tailrecurse._crit_edge.i.i

tailrecurse._crit_edge.i.i:                       ; preds = %tailrecurse.i.i, %1
  %.tr.lcssa.i.i = phi ptr [ %0, %1 ], [ %12, %tailrecurse.i.i ]
  %5 = getelementptr inbounds i8, ptr %.tr.lcssa.i.i, i64 120
  %6 = load ptr, ptr %5, align 8
  %.not28.i.i = icmp eq ptr %6, null
  br i1 %.not28.i.i, label %7, label %spl_array_get_hash_table.exit

7:                                                ; preds = %tailrecurse._crit_edge.i.i
  %8 = getelementptr inbounds i8, ptr %.tr.lcssa.i.i, i64 88
  tail call void @rebuild_object_properties(ptr noundef nonnull %8) #11
  br label %spl_array_get_hash_table.exit

.lr.ph.i.i:                                       ; preds = %1, %tailrecurse.i.i
  %9 = phi i32 [ %14, %tailrecurse.i.i ], [ %3, %1 ]
  %.tr31.i.i = phi ptr [ %12, %tailrecurse.i.i ], [ %0, %1 ]
  %10 = and i32 %9, 33554432
  %.not25.i.i = icmp eq i32 %10, 0
  br i1 %.not25.i.i, label %16, label %tailrecurse.i.i

tailrecurse.i.i:                                  ; preds = %.lr.ph.i.i
  %11 = load ptr, ptr %.tr31.i.i, align 8
  %12 = getelementptr inbounds i8, ptr %11, i64 -88
  %13 = getelementptr inbounds i8, ptr %11, i64 -68
  %14 = load i32, ptr %13, align 4
  %15 = and i32 %14, 16777216
  %.not.i.i = icmp eq i32 %15, 0
  br i1 %.not.i.i, label %.lr.ph.i.i, label %tailrecurse._crit_edge.i.i

16:                                               ; preds = %.lr.ph.i.i
  %17 = getelementptr inbounds i8, ptr %.tr31.i.i, i64 8
  %18 = load i8, ptr %17, align 8
  %19 = icmp eq i8 %18, 7
  br i1 %19, label %spl_array_get_hash_table.exit, label %20

20:                                               ; preds = %16
  %21 = load ptr, ptr %.tr31.i.i, align 8
  %22 = getelementptr inbounds i8, ptr %21, i64 32
  %23 = load ptr, ptr %22, align 8
  %.not26.i.i = icmp eq ptr %23, null
  br i1 %.not26.i.i, label %24, label %25

24:                                               ; preds = %20
  tail call void @rebuild_object_properties(ptr noundef nonnull %21) #11
  br label %spl_array_get_hash_table.exit

25:                                               ; preds = %20
  %26 = load i32, ptr %23, align 4
  %27 = icmp ugt i32 %26, 1
  br i1 %27, label %28, label %spl_array_get_hash_table.exit

28:                                               ; preds = %25
  %29 = getelementptr inbounds i8, ptr %23, i64 4
  %30 = load i32, ptr %29, align 4
  %31 = and i32 %30, 64
  %.not27.i.i = icmp eq i32 %31, 0
  br i1 %.not27.i.i, label %32, label %34

32:                                               ; preds = %28
  %33 = add i32 %26, -1
  store i32 %33, ptr %23, align 4
  %.pre.i.i = load ptr, ptr %22, align 8
  br label %34

34:                                               ; preds = %32, %28
  %35 = phi ptr [ %.pre.i.i, %32 ], [ %23, %28 ]
  %36 = tail call ptr @zend_array_dup(ptr noundef %35) #11
  store ptr %36, ptr %22, align 8
  br label %spl_array_get_hash_table.exit

spl_array_get_hash_table.exit:                    ; preds = %tailrecurse._crit_edge.i.i, %7, %16, %24, %25, %34
  %.0.i.i = phi ptr [ %5, %7 ], [ %5, %tailrecurse._crit_edge.i.i ], [ %.tr31.i.i, %16 ], [ %22, %25 ], [ %22, %34 ], [ %22, %24 ]
  %37 = load ptr, ptr %.0.i.i, align 8
  %38 = getelementptr inbounds i8, ptr %0, i64 16
  %39 = load i32, ptr %38, align 8
  %40 = icmp eq i32 %39, -1
  br i1 %40, label %41, label %44

41:                                               ; preds = %spl_array_get_hash_table.exit
  %42 = tail call i32 @zend_hash_get_current_pos(ptr noundef %37) #11
  %43 = tail call i32 @zend_hash_iterator_add(ptr noundef %37, i32 noundef %42) #11
  store i32 %43, ptr %38, align 8
  br label %44

44:                                               ; preds = %spl_array_get_hash_table.exit, %41
  %.sink = phi i32 [ %43, %41 ], [ %39, %spl_array_get_hash_table.exit ]
  %45 = load ptr, ptr getelementptr inbounds (%struct._zend_executor_globals, ptr @executor_globals, i64 0, i32 60), align 8
  %46 = zext i32 %.sink to i64
  %47 = getelementptr inbounds %struct._HashTableIterator, ptr %45, i64 %46, i32 1
  tail call void @zend_hash_internal_pointer_reset_ex(ptr noundef %37, ptr noundef nonnull %47) #11
  %48 = tail call fastcc i32 @spl_array_skip_protected(ptr noundef nonnull %0, ptr noundef %37), !range !4
  ret void
}